; Function Attrs: mustprogress nounwind uwtable
define dso_local void @_ZN5clang5index23generateUSRForObjCClassEN4llvm9StringRefERNS1_11raw_ostreamES2_S2_(ptr %0, i64 %1, ptr noundef nonnull align 8 dereferenceable(48) %2, ptr %3, i64 %4, ptr noundef readonly byval(%"class.llvm::StringRef") align 8 captures(none) %5) local_unnamed_addr #0 {
  %.sroa.01.0.copyload = load ptr, ptr %5, align 8
  %.sroa.22.0..sroa_idx = getelementptr inbounds nuw i8, ptr %5, i64 8
  %.sroa.22.0.copyload = load i64, ptr %.sroa.22.0..sroa_idx, align 8
  tail call fastcc void @_ZL36combineClassAndCategoryExtContainersN4llvm9StringRefES0_RNS_11raw_ostreamE(ptr %3, i64 %4, ptr %.sroa.01.0.copyload, i64 %.sroa.22.0.copyload, ptr noundef nonnull align 8 dereferenceable(48) %2)
  %7 = getelementptr inbounds nuw i8, ptr %2, i64 24
  %8 = load ptr, ptr %7, align 8
  %9 = getelementptr inbounds nuw i8, ptr %2, i64 32
  %10 = load ptr, ptr %9, align 8
  %11 = ptrtoint ptr %8 to i64
  %12 = ptrtoint ptr %10 to i64
  %13 = sub i64 %11, %12
  %14 = icmp ult i64 %13, 8
  br i1 %14, label %15, label %17

15:                                               ; preds = %6
  %16 = tail call noundef nonnull align 8 dereferenceable(48) ptr @_ZN4llvm11raw_ostream5writeEPKcm(ptr noundef nonnull align 8 dereferenceable(48) %2, ptr noundef nonnull @.str, i64 noundef 8) #14
  %.phi.trans.insert = getelementptr inbounds nuw i8, ptr %16, i64 32
  %.pre = load ptr, ptr %.phi.trans.insert, align 8
  br label %_ZN4llvm11raw_ostreamlsEPKc.exit

17:                                               ; preds = %6
  store i64 2986840002994528879, ptr %10, align 1
  %18 = load ptr, ptr %9, align 8
  %19 = getelementptr inbounds nuw i8, ptr %18, i64 8
  store ptr %19, ptr %9, align 8
  br label %_ZN4llvm11raw_ostreamlsEPKc.exit

_ZN4llvm11raw_ostreamlsEPKc.exit:                 ; preds = %15, %17
  %20 = phi ptr [ %.pre, %15 ], [ %19, %17 ]
  %.0.i.i = phi ptr [ %16, %15 ], [ %2, %17 ]
  %21 = getelementptr inbounds nuw i8, ptr %.0.i.i, i64 24
  %22 = load ptr, ptr %21, align 8
  %23 = getelementptr inbounds nuw i8, ptr %.0.i.i, i64 32
  %24 = ptrtoint ptr %22 to i64
  %25 = ptrtoint ptr %20 to i64
  %26 = sub i64 %24, %25
  %27 = icmp ugt i64 %1, %26
  br i1 %27, label %28, label %30

28:                                               ; preds = %_ZN4llvm11raw_ostreamlsEPKc.exit
  %29 = tail call noundef nonnull align 8 dereferenceable(48) ptr @_ZN4llvm11raw_ostream5writeEPKcm(ptr noundef nonnull align 8 dereferenceable(48) %.0.i.i, ptr noundef %0, i64 noundef %1) #14
  br label %_ZN4llvm11raw_ostreamlsENS_9StringRefE.exit

30:                                               ; preds = %_ZN4llvm11raw_ostreamlsEPKc.exit
  %.not.i = icmp eq i64 %1, 0
  br i1 %.not.i, label %_ZN4llvm11raw_ostreamlsENS_9StringRefE.exit, label %31

31:                                               ; preds = %30
  tail call void @llvm.memcpy.p0.p0.i64(ptr align 1 %20, ptr align 1 %0, i64 %1, i1 false)
  %32 = load ptr, ptr %23, align 8
  %33 = getelementptr inbounds i8, ptr %32, i64 %1
  store ptr %33, ptr %23, align 8
  br label %_ZN4llvm11raw_ostreamlsENS_9StringRefE.exit

_ZN4llvm11raw_ostreamlsENS_9StringRefE.exit:      ; preds = %28, %30, %31
  ret void
}